; Function Attrs: mustprogress nofree norecurse nosync nounwind willreturn memory(read, inaccessiblemem: none) uwtable
define noundef i32 @_ZNK6icu_7510UnicodeSet13getRangeStartEi(ptr nocapture noundef nonnull readonly align 8 dereferenceable(200) %this, i32 noundef %index) unnamed_addr #9 align 2 {
entry:
  %list = getelementptr inbounds i8, ptr %this, i64 16
  %0 = load ptr, ptr %list, align 8
  %mul = shl nsw i32 %index, 1
  %idxprom = sext i32 %mul to i64
  %arrayidx = getelementptr inbounds i32, ptr %0, i64 %idxprom
  %1 = load i32, ptr %arrayidx, align 4
  ret i32 %1
}